# SymbolsHelper-Confirmed: 4:15.12 amd64
libKF5KaddressbookGrantlee.so.5 libkf5kaddressbookgrantlee5 #MINVER#
 _ZN20KAddressBookGrantlee13GrantleePrint10setContentERK7QString@Base 4:15.12
 _ZN20KAddressBookGrantlee13GrantleePrint11qt_metacallEN11QMetaObject4CallEiPPv@Base 4:15.12
 _ZN20KAddressBookGrantlee13GrantleePrint11qt_metacastEPKc@Base 4:15.12
 _ZN20KAddressBookGrantlee13GrantleePrint14contactsToHtmlERKN9KContacts13AddresseeListE@Base 4:15.12
 _ZN20KAddressBookGrantlee13GrantleePrint15refreshTemplateEv@Base 4:15.12
 _ZN20KAddressBookGrantlee13GrantleePrint16staticMetaObjectE@Base 4:15.12
 _ZN20KAddressBookGrantlee13GrantleePrint18changeGrantleePathERK7QString@Base 4:15.12
 _ZN20KAddressBookGrantlee13GrantleePrintC1EP7QObject@Base 4:15.12
 _ZN20KAddressBookGrantlee13GrantleePrintC1ERK7QStringP7QObject@Base 4:15.12
 _ZN20KAddressBookGrantlee13GrantleePrintC2EP7QObject@Base 4:15.12
 _ZN20KAddressBookGrantlee13GrantleePrintC2ERK7QStringP7QObject@Base 4:15.12
 _ZN20KAddressBookGrantlee13GrantleePrintD0Ev@Base 4:15.12
 _ZN20KAddressBookGrantlee13GrantleePrintD1Ev@Base 4:15.12
 _ZN20KAddressBookGrantlee13GrantleePrintD2Ev@Base 4:15.12
 _ZN20KAddressBookGrantlee21GrantleeContactViewer11qt_metacallEN11QMetaObject4CallEiPPv@Base 4:15.12
 _ZN20KAddressBookGrantlee21GrantleeContactViewer11qt_metacastEPKc@Base 4:15.12
 _ZN20KAddressBookGrantlee21GrantleeContactViewer16staticMetaObjectE@Base 4:15.12
 _ZN20KAddressBookGrantlee21GrantleeContactViewer21setForceDisableQRCodeEb@Base 4:15.12
 _ZN20KAddressBookGrantlee21GrantleeContactViewer29kaddressBookAbsoluteThemePathEv@Base 4:15.12
 _ZN20KAddressBookGrantlee21GrantleeContactViewerC1EP7QWidget@Base 4:15.12
 _ZN20KAddressBookGrantlee21GrantleeContactViewerC2EP7QWidget@Base 4:15.12
 _ZN20KAddressBookGrantlee21GrantleeContactViewerD0Ev@Base 4:15.12
 _ZN20KAddressBookGrantlee21GrantleeContactViewerD1Ev@Base 4:15.12
 _ZN20KAddressBookGrantlee21GrantleeContactViewerD2Ev@Base 4:15.12
 _ZN20KAddressBookGrantlee24GrantleeContactFormatter16setGrantleeThemeERKN13GrantleeTheme5ThemeE@Base 4:15.12
 _ZN20KAddressBookGrantlee24GrantleeContactFormatter20setAbsoluteThemePathERK7QString@Base 4:15.12
 _ZN20KAddressBookGrantlee24GrantleeContactFormatter21setForceDisableQRCodeEb@Base 4:15.12
 _ZN20KAddressBookGrantlee24GrantleeContactFormatterC1Ev@Base 4:15.12
 _ZN20KAddressBookGrantlee24GrantleeContactFormatterC2Ev@Base 4:15.12
 _ZN20KAddressBookGrantlee24GrantleeContactFormatterD0Ev@Base 4:15.12
 _ZN20KAddressBookGrantlee24GrantleeContactFormatterD1Ev@Base 4:15.12
 _ZN20KAddressBookGrantlee24GrantleeContactFormatterD2Ev@Base 4:15.12
 _ZN20KAddressBookGrantlee29GrantleeContactGroupFormatter16setGrantleeThemeERKN13GrantleeTheme5ThemeE@Base 4:15.12
 _ZN20KAddressBookGrantlee29GrantleeContactGroupFormatter20setAbsoluteThemePathERK7QString@Base 4:15.12
 _ZN20KAddressBookGrantlee29GrantleeContactGroupFormatterC1Ev@Base 4:15.12
 _ZN20KAddressBookGrantlee29GrantleeContactGroupFormatterC2Ev@Base 4:15.12
 _ZN20KAddressBookGrantlee29GrantleeContactGroupFormatterD0Ev@Base 4:15.12
 _ZN20KAddressBookGrantlee29GrantleeContactGroupFormatterD1Ev@Base 4:15.12
 _ZN20KAddressBookGrantlee29GrantleeContactGroupFormatterD2Ev@Base 4:15.12
 _ZNK20KAddressBookGrantlee13GrantleePrint10metaObjectEv@Base 4:15.12
 _ZNK20KAddressBookGrantlee21GrantleeContactViewer10metaObjectEv@Base 4:15.12
 _ZNK20KAddressBookGrantlee24GrantleeContactFormatter18forceDisableQRCodeEv@Base 4:15.12
 _ZNK20KAddressBookGrantlee24GrantleeContactFormatter6toHtmlEN7Akonadi24AbstractContactFormatter8HtmlFormE@Base 4:15.12
 _ZNK20KAddressBookGrantlee29GrantleeContactGroupFormatter6toHtmlEN7Akonadi29AbstractContactGroupFormatter8HtmlFormE@Base 4:15.12
 (optional=templinst)_ZNK7Akonadi4Item10hasPayloadIN9KContacts12ContactGroupEEEbv@Base 4:15.12
 (optional=templinst)_ZNK7Akonadi4Item10hasPayloadIN9KContacts9AddresseeEEEbv@Base 4:15.12
 (optional=templinst)_ZNK7Akonadi4Item11payloadImplIN9KContacts12ContactGroupEEENSt9enable_ifIXntsrNS_8Internal12PayloadTraitIT_EE13isPolymorphicES7_E4typeEv@Base 4:15.12
 (optional=templinst)_ZNK7Akonadi4Item11payloadImplIN9KContacts9AddresseeEEENSt9enable_ifIXntsrNS_8Internal12PayloadTraitIT_EE13isPolymorphicES7_E4typeEv@Base 4:15.12
 (optional=templinst)_ZNK7Akonadi4Item7payloadIN9KContacts9AddresseeEEET_v@Base 4:15.12
 _ZTIN20KAddressBookGrantlee13GrantleePrintE@Base 4:15.12
 _ZTIN20KAddressBookGrantlee21GrantleeContactViewerE@Base 4:15.12
 _ZTIN20KAddressBookGrantlee24GrantleeContactFormatterE@Base 4:15.12
 _ZTIN20KAddressBookGrantlee29GrantleeContactGroupFormatterE@Base 4:15.12
 _ZTSN20KAddressBookGrantlee13GrantleePrintE@Base 4:15.12
 _ZTSN20KAddressBookGrantlee21GrantleeContactViewerE@Base 4:15.12
 _ZTSN20KAddressBookGrantlee24GrantleeContactFormatterE@Base 4:15.12
 _ZTSN20KAddressBookGrantlee29GrantleeContactGroupFormatterE@Base 4:15.12
 _ZTVN20KAddressBookGrantlee13GrantleePrintE@Base 4:15.12
 _ZTVN20KAddressBookGrantlee21GrantleeContactViewerE@Base 4:15.12
 _ZTVN20KAddressBookGrantlee24GrantleeContactFormatterE@Base 4:15.12
 _ZTVN20KAddressBookGrantlee29GrantleeContactGroupFormatterE@Base 4:15.12
 (c++)"non-virtual thunk to KAddressBookGrantlee::GrantleeContactViewer::~GrantleeContactViewer()@Base" 4:15.12
